	.file	"Assignment1.c"
	.text
	.globl	assignval
	.type	assignval, @function
assignval:
.LFB5:
	.cfi_startproc
	pushq	%rbp
	.cfi_def_cfa_offset 16
	.cfi_offset 6, -16
	movq	%rsp, %rbp
	.cfi_def_cfa_register 6
	movq	%rdi, -8(%rbp)
	movl	%esi, -12(%rbp)
	movq	-8(%rbp), %rax
	movl	-12(%rbp), %edx
	movl	%edx, (%rax)
	movq	-8(%rbp), %rax
	popq	%rbp
	.cfi_def_cfa 7, 8
	ret
	.cfi_endproc
.LFE5:
	.size	assignval, .-assignval
	.section	.rodata
.LC0:
	.string	"%d\n"
	.text
	.globl	main
	.type	main, @function
main:
.LFB6:
	.cfi_startproc
	pushq	%rbp
	.cfi_def_cfa_offset 16
	.cfi_offset 6, -16
	movq	%rsp, %rbp
	.cfi_def_cfa_register 6
	subq	$16, %rsp
	movl	$4, %edi
	call	malloc@PLT
	movq	%rax, -8(%rbp)
	cmpq	$0, -8(%rbp)
	je	.L9
	movq	-8(%rbp), %rax
	movl	$0, %esi
	movq	%rax, %rdi
	call	assignval
	movq	%rax, -8(%rbp)
	cmpq	$0, -8(%rbp)
	je	.L6
	movq	-8(%rbp), %rax
	movq	%rax, %rdi
	call	free@PLT
	movl	$4, %edi
	call	malloc@PLT
	movq	%rax, -8(%rbp)
	cmpq	$0, -8(%rbp)
	je	.L10
	movq	-8(%rbp), %rax
	movl	$10, %esi
	movq	%rax, %rdi
	call	assignval
	movq	%rax, -8(%rbp)
.L6:
	movq	-8(%rbp), %rax
	movl	(%rax), %eax
	movl	%eax, %esi
	leaq	.LC0(%rip), %rdi
	movl	$0, %eax
	call	printf@PLT
	movq	-8(%rbp), %rax
	movq	%rax, %rdi
	call	free@PLT
	movl	$0, %eax
	jmp	.L3
.L9:
	nop
	jmp	.L5
.L10:
	nop
.L5:
.L3:
	leave
	.cfi_def_cfa 7, 8
	ret
	.cfi_endproc
.LFE6:
	.size	main, .-main
	.ident	"GCC: (Ubuntu 7.5.0-3ubuntu1~18.04) 7.5.0"
	.section	.note.GNU-stack,"",@progbits
